target datalayout = "e-m:e-p270:32:32-p271:32:32-p272:64:64-i64:64-i128:128-f80:128-n8:16:32:64-S128"
target triple = "x86_64-pc-linux-gnu"

%struct._XSettingsList = type { ptr, ptr }
%struct._XSettingsSetting = type { ptr, i32, %union.anon.1, i64 }
%union.anon.1 = type { ptr }

; Function Attrs: nounwind uwtable
define hidden void @xsettings_setting_free(ptr noundef %0) #0 {
  %2 = alloca ptr, align 8
  store ptr %0, ptr %2, align 8
  %3 = load ptr, ptr %2, align 8
  %4 = getelementptr inbounds nuw %struct._XSettingsSetting, ptr %3, i32 0, i32 1
  %5 = load i32, ptr %4, align 8
  %6 = icmp eq i32 %5, 1
  br i1 %6, label %7, label %11

7:                                                ; preds = %1
  %8 = load ptr, ptr %2, align 8
  %9 = getelementptr inbounds nuw %struct._XSettingsSetting, ptr %8, i32 0, i32 2
  %10 = load ptr, ptr %9, align 8
  call void @free(ptr noundef %10) #6
  br label %11

11:                                               ; preds = %7, %1
  %12 = load ptr, ptr %2, align 8
  %13 = getelementptr inbounds nuw %struct._XSettingsSetting, ptr %12, i32 0, i32 0
  %14 = load ptr, ptr %13, align 8
  %15 = icmp ne ptr %14, null
  br i1 %15, label %16, label %20

16:                                               ; preds = %11
  %17 = load ptr, ptr %2, align 8
  %18 = getelementptr inbounds nuw %struct._XSettingsSetting, ptr %17, i32 0, i32 0
  %19 = load ptr, ptr %18, align 8
  call void @free(ptr noundef %19) #6
  br label %20

20:                                               ; preds = %16, %11
  %21 = load ptr, ptr %2, align 8
  call void @free(ptr noundef %21) #6
  ret void
}

; Function Attrs: nounwind uwtable
define hidden void @xsettings_list_free(ptr noundef %0) #0 {
  %2 = alloca ptr, align 8
  %3 = alloca ptr, align 8
  store ptr %0, ptr %2, align 8
  br label %4

4:                                                ; preds = %7, %1
  %5 = load ptr, ptr %2, align 8
  %6 = icmp ne ptr %5, null
  br i1 %6, label %7, label %16

7:                                                ; preds = %4
  call void @llvm.lifetime.start.p0(i64 8, ptr %3) #6
  %8 = load ptr, ptr %2, align 8
  %9 = getelementptr inbounds nuw %struct._XSettingsList, ptr %8, i32 0, i32 1
  %10 = load ptr, ptr %9, align 8
  store ptr %10, ptr %3, align 8
  %11 = load ptr, ptr %2, align 8
  %12 = getelementptr inbounds nuw %struct._XSettingsList, ptr %11, i32 0, i32 0
  %13 = load ptr, ptr %12, align 8
  call void @xsettings_setting_free(ptr noundef %13)
  %14 = load ptr, ptr %2, align 8
  call void @free(ptr noundef %14) #6
  %15 = load ptr, ptr %3, align 8
  store ptr %15, ptr %2, align 8
  call void @llvm.lifetime.end.p0(i64 8, ptr %3) #6
  br label %4, !llvm.loop !3

16:                                               ; preds = %4
  ret void
}

; Function Attrs: nounwind uwtable
define hidden ptr @xsettings_list_copy(ptr noundef %0) #0 {
  %2 = alloca ptr, align 8
  %3 = alloca ptr, align 8
  %4 = alloca ptr, align 8
  %5 = alloca ptr, align 8
  %6 = alloca ptr, align 8
  %7 = alloca ptr, align 8
  %8 = alloca i32, align 4
  store ptr %0, ptr %3, align 8
  call void @llvm.lifetime.start.p0(i64 8, ptr %4) #6
  store ptr null, ptr %4, align 8
  call void @llvm.lifetime.start.p0(i64 8, ptr %5) #6
  %9 = load ptr, ptr %3, align 8
  store ptr %9, ptr %5, align 8
  call void @llvm.lifetime.start.p0(i64 8, ptr %6) #6
  store ptr null, ptr %6, align 8
  br label %10

10:                                               ; preds = %49, %1
  %11 = load ptr, ptr %5, align 8
  %12 = icmp ne ptr %11, null
  br i1 %12, label %13, label %50

13:                                               ; preds = %10
  call void @llvm.lifetime.start.p0(i64 8, ptr %7) #6
  %14 = call noalias ptr @malloc(i64 noundef 16) #7
  store ptr %14, ptr %7, align 8
  %15 = load ptr, ptr %7, align 8
  %16 = icmp ne ptr %15, null
  br i1 %16, label %18, label %17

17:                                               ; preds = %13
  store i32 4, ptr %8, align 4
  br label %47

18:                                               ; preds = %13
  %19 = load ptr, ptr %5, align 8
  %20 = getelementptr inbounds nuw %struct._XSettingsList, ptr %19, i32 0, i32 0
  %21 = load ptr, ptr %20, align 8
  %22 = call ptr @xsettings_setting_copy(ptr noundef %21)
  %23 = load ptr, ptr %7, align 8
  %24 = getelementptr inbounds nuw %struct._XSettingsList, ptr %23, i32 0, i32 0
  store ptr %22, ptr %24, align 8
  %25 = load ptr, ptr %7, align 8
  %26 = getelementptr inbounds nuw %struct._XSettingsList, ptr %25, i32 0, i32 0
  %27 = load ptr, ptr %26, align 8
  %28 = icmp ne ptr %27, null
  br i1 %28, label %31, label %29

29:                                               ; preds = %18
  %30 = load ptr, ptr %7, align 8
  call void @free(ptr noundef %30) #6
  store i32 4, ptr %8, align 4
  br label %47

31:                                               ; preds = %18
  %32 = load ptr, ptr %6, align 8
  %33 = icmp ne ptr %32, null
  br i1 %33, label %34, label %38

34:                                               ; preds = %31
  %35 = load ptr, ptr %7, align 8
  %36 = load ptr, ptr %6, align 8
  %37 = getelementptr inbounds nuw %struct._XSettingsList, ptr %36, i32 0, i32 1
  store ptr %35, ptr %37, align 8
  br label %42

38:                                               ; preds = %31
  %39 = load ptr, ptr %7, align 8
  store ptr %39, ptr %4, align 8
  %40 = load ptr, ptr %4, align 8
  %41 = getelementptr inbounds nuw %struct._XSettingsList, ptr %40, i32 0, i32 1
  store ptr null, ptr %41, align 8
  br label %42

42:                                               ; preds = %38, %34
  %43 = load ptr, ptr %7, align 8
  store ptr %43, ptr %6, align 8
  %44 = load ptr, ptr %5, align 8
  %45 = getelementptr inbounds nuw %struct._XSettingsList, ptr %44, i32 0, i32 1
  %46 = load ptr, ptr %45, align 8
  store ptr %46, ptr %5, align 8
  store i32 0, ptr %8, align 4
  br label %47

47:                                               ; preds = %29, %17, %42
  call void @llvm.lifetime.end.p0(i64 8, ptr %7) #6
  %48 = load i32, ptr %8, align 4
  switch i32 %48, label %54 [
    i32 0, label %49
    i32 4, label %52
  ]

49:                                               ; preds = %47
  br label %10, !llvm.loop !6

50:                                               ; preds = %10
  %51 = load ptr, ptr %4, align 8
  store ptr %51, ptr %2, align 8
  store i32 1, ptr %8, align 4
  br label %54

52:                                               ; preds = %47
  %53 = load ptr, ptr %4, align 8
  call void @xsettings_list_free(ptr noundef %53)
  store ptr null, ptr %2, align 8
  store i32 1, ptr %8, align 4
  br label %54

54:                                               ; preds = %52, %50, %47
  call void @llvm.lifetime.end.p0(i64 8, ptr %6) #6
  call void @llvm.lifetime.end.p0(i64 8, ptr %5) #6
  call void @llvm.lifetime.end.p0(i64 8, ptr %4) #6
  %55 = load ptr, ptr %2, align 8
  ret ptr %55
}