; Function Attrs: nounwind uwtable
define hidden ptr @xsettings_list_copy(ptr noundef readonly captures(address_is_null) %0) local_unnamed_addr #0 {
  %.not39 = icmp eq ptr %0, null
  br i1 %.not39, label %xsettings_list_free.exit, label %.lr.ph

.lr.ph:                                           ; preds = %1, %7
  %.01842 = phi ptr [ %2, %7 ], [ null, %1 ]
  %.01941 = phi ptr [ %10, %7 ], [ %0, %1 ]
  %.02140 = phi ptr [ %..02140, %7 ], [ null, %1 ]
  %2 = tail call noalias dereferenceable_or_null(16) ptr @malloc(i64 noundef 16) #15
  %.not24 = icmp eq ptr %2, null
  br i1 %.not24, label %.loopexit, label %3

3:                                                ; preds = %.lr.ph
  %4 = load ptr, ptr %.01941, align 8
  %5 = tail call ptr @xsettings_setting_copy(ptr noundef %4)
  store ptr %5, ptr %2, align 8
  %.not25 = icmp eq ptr %5, null
  br i1 %.not25, label %6, label %7

6:                                                ; preds = %3
  tail call void @free(ptr noundef nonnull %2) #14
  br label %.loopexit

7:                                                ; preds = %3
  %.not26 = icmp eq ptr %.01842, null
  %..01842 = select i1 %.not26, ptr %2, ptr %.01842
  %. = select i1 %.not26, ptr null, ptr %2
  %..02140 = select i1 %.not26, ptr %2, ptr %.02140
  %8 = getelementptr inbounds nuw i8, ptr %..01842, i64 8
  store ptr %., ptr %8, align 8
  %9 = getelementptr inbounds nuw i8, ptr %.01941, i64 8
  %10 = load ptr, ptr %9, align 8
  %.not = icmp eq ptr %10, null
  br i1 %.not, label %xsettings_list_free.exit, label %.lr.ph

.loopexit:                                        ; preds = %.lr.ph, %6
  %.not5.i = icmp eq ptr %.02140, null
  br i1 %.not5.i, label %xsettings_list_free.exit, label %.lr.ph.i

.lr.ph.i:                                         ; preds = %.loopexit, %xsettings_setting_free.exit.i
  %.06.i = phi ptr [ %12, %xsettings_setting_free.exit.i ], [ %.02140, %.loopexit ]
  %11 = getelementptr inbounds nuw i8, ptr %.06.i, i64 8
  %12 = load ptr, ptr %11, align 8
  %13 = load ptr, ptr %.06.i, align 8
  %14 = getelementptr inbounds nuw i8, ptr %13, i64 8
  %15 = load i32, ptr %14, align 8
  %16 = icmp eq i32 %15, 1
  br i1 %16, label %17, label %20

17:                                               ; preds = %.lr.ph.i
  %18 = getelementptr inbounds nuw i8, ptr %13, i64 16
  %19 = load ptr, ptr %18, align 8
  tail call void @free(ptr noundef %19) #14
  br label %20

20:                                               ; preds = %17, %.lr.ph.i
  %21 = load ptr, ptr %13, align 8
  %.not.i.i = icmp eq ptr %21, null
  br i1 %.not.i.i, label %xsettings_setting_free.exit.i, label %22

22:                                               ; preds = %20
  tail call void @free(ptr noundef nonnull %21) #14
  br label %xsettings_setting_free.exit.i

xsettings_setting_free.exit.i:                    ; preds = %22, %20
  tail call void @free(ptr noundef nonnull %13) #14
  tail call void @free(ptr noundef nonnull %.06.i) #14
  %.not.i = icmp eq ptr %12, null
  br i1 %.not.i, label %xsettings_list_free.exit, label %.lr.ph.i, !llvm.loop !3

xsettings_list_free.exit:                         ; preds = %7, %xsettings_setting_free.exit.i, %1, %.loopexit
  %.017 = phi ptr [ null, %.loopexit ], [ null, %1 ], [ null, %xsettings_setting_free.exit.i ], [ %..02140, %7 ]
  ret ptr %.017
}